target datalayout = "e-m:e-p270:32:32-p271:32:32-p272:64:64-i64:64-i128:128-f80:128-n8:16:32:64-S128"
target triple = "x86_64-pc-linux-gnu"

%"struct.sat::bcd::scoped_cleanup" = type { ptr }
%"struct.sat::bcd::report" = type { ptr }

; Function Attrs: mustprogress nounwind uwtable
define linkonce_odr hidden void @_ZN3sat3bcd6reportC2ERS0_(ptr noundef nonnull align 8 dereferenceable(8) %0, ptr noundef nonnull align 8 dereferenceable(80) %1) unnamed_addr #4 comdat align 2 {
  %3 = alloca ptr, align 8
  %4 = alloca ptr, align 8
  store ptr %0, ptr %3, align 8, !tbaa !45
  store ptr %1, ptr %4, align 8, !tbaa !3
  %5 = load ptr, ptr %3, align 8
  %6 = getelementptr inbounds nuw %"struct.sat::bcd::report", ptr %5, i32 0, i32 0
  %7 = load ptr, ptr %4, align 8, !tbaa !3
  store ptr %7, ptr %6, align 8, !tbaa !3
  ret void
}

; Function Attrs: mustprogress nounwind uwtable
define linkonce_odr hidden void @_ZN3sat3bcd14scoped_cleanupC2ERS0_(ptr noundef nonnull align 8 dereferenceable(8) %0, ptr noundef nonnull align 8 dereferenceable(80) %1) unnamed_addr #4 comdat align 2 {
  %3 = alloca ptr, align 8
  %4 = alloca ptr, align 8
  store ptr %0, ptr %3, align 8, !tbaa !43
  store ptr %1, ptr %4, align 8, !tbaa !3
  %5 = load ptr, ptr %3, align 8
  %6 = getelementptr inbounds nuw %"struct.sat::bcd::scoped_cleanup", ptr %5, i32 0, i32 0
  %7 = load ptr, ptr %4, align 8, !tbaa !3
  store ptr %7, ptr %6, align 8, !tbaa !3
  ret void
}

; Function Attrs: mustprogress uwtable
define hidden void @_ZN3sat3bcdclER10union_findI22union_find_default_ctxE(ptr noundef nonnull align 8 dereferenceable(80) %0, ptr noundef nonnull align 8 dereferenceable(56) %1) #5 align 2 personality ptr @__gxx_personality_v0 {
  %3 = alloca ptr, align 8
  %4 = alloca ptr, align 8
  %5 = alloca %"struct.sat::bcd::scoped_cleanup", align 8
  %6 = alloca %"struct.sat::bcd::report", align 8
  %7 = alloca ptr, align 8
  %8 = alloca i32, align 4
  store ptr %0, ptr %3, align 8, !tbaa !3
  store ptr %1, ptr %4, align 8, !tbaa !41
  %9 = load ptr, ptr %3, align 8
  call void @llvm.lifetime.start.p0(i64 8, ptr %5) #3
  call void @_ZN3sat3bcd14scoped_cleanupC2ERS0_(ptr noundef nonnull align 8 dereferenceable(8) %5, ptr noundef nonnull align 8 dereferenceable(80) %9)
  call void @llvm.lifetime.start.p0(i64 8, ptr %6) #3
  invoke void @_ZN3sat3bcd6reportC2ERS0_(ptr noundef nonnull align 8 dereferenceable(8) %6, ptr noundef nonnull align 8 dereferenceable(80) %9)
          to label %10 unwind label %16

10:                                               ; preds = %2
  invoke void @_ZN3sat3bcd14pure_decomposeEv(ptr noundef nonnull align 8 dereferenceable(80) %9)
          to label %11 unwind label %20

11:                                               ; preds = %10
  invoke void @_ZN3sat3bcd14post_decomposeEv(ptr noundef nonnull align 8 dereferenceable(80) %9)
          to label %12 unwind label %20

12:                                               ; preds = %11
  invoke void @_ZN3sat3bcd9sat_sweepEv(ptr noundef nonnull align 8 dereferenceable(80) %9)
          to label %13 unwind label %20

13:                                               ; preds = %12
  %14 = load ptr, ptr %4, align 8, !tbaa !41
  invoke void @_ZN3sat3bcd17extract_partitionER10union_findI22union_find_default_ctxE(ptr noundef nonnull align 8 dereferenceable(80) %9, ptr noundef nonnull align 8 dereferenceable(56) %14)
          to label %15 unwind label %20

15:                                               ; preds = %13
  call void @_ZN3sat3bcd6reportD2Ev(ptr noundef nonnull align 8 dereferenceable(8) %6) #3
  call void @llvm.lifetime.end.p0(i64 8, ptr %6) #3
  call void @_ZN3sat3bcd14scoped_cleanupD2Ev(ptr noundef nonnull align 8 dereferenceable(8) %5) #3
  call void @llvm.lifetime.end.p0(i64 8, ptr %5) #3
  ret void

16:                                               ; preds = %2
  %17 = landingpad { ptr, i32 }
          cleanup
  %18 = extractvalue { ptr, i32 } %17, 0
  store ptr %18, ptr %7, align 8
  %19 = extractvalue { ptr, i32 } %17, 1
  store i32 %19, ptr %8, align 4
  br label %24

20:                                               ; preds = %13, %12, %11, %10
  %21 = landingpad { ptr, i32 }
          cleanup
  %22 = extractvalue { ptr, i32 } %21, 0
  store ptr %22, ptr %7, align 8
  %23 = extractvalue { ptr, i32 } %21, 1
  store i32 %23, ptr %8, align 4
  call void @_ZN3sat3bcd6reportD2Ev(ptr noundef nonnull align 8 dereferenceable(8) %6) #3
  br label %24

24:                                               ; preds = %20, %16
  call void @llvm.lifetime.end.p0(i64 8, ptr %6) #3
  call void @_ZN3sat3bcd14scoped_cleanupD2Ev(ptr noundef nonnull align 8 dereferenceable(8) %5) #3
  call void @llvm.lifetime.end.p0(i64 8, ptr %5) #3
  br label %25

25:                                               ; preds = %24
  %26 = load ptr, ptr %7, align 8
  %27 = load i32, ptr %8, align 4
  %28 = insertvalue { ptr, i32 } poison, ptr %26, 0
  %29 = insertvalue { ptr, i32 } %28, i32 %27, 1
  resume { ptr, i32 } %29
}