; Function Attrs: mustprogress uwtable
define hidden void @_ZN3sat3bcdclER10union_findI22union_find_default_ctxE(ptr noundef nonnull align 8 dereferenceable(80) %0, ptr noundef nonnull align 8 dereferenceable(56) %1) local_unnamed_addr #5 align 2 personality ptr @__gxx_personality_v0 {
  %3 = alloca %"struct.sat::bcd::scoped_cleanup", align 8
  %4 = alloca %"struct.sat::bcd::report", align 8
  call void @llvm.lifetime.start.p0(i64 8, ptr nonnull %3) #22
  store ptr %0, ptr %3, align 8, !tbaa !29
  call void @llvm.lifetime.start.p0(i64 8, ptr nonnull %4) #22
  store ptr %0, ptr %4, align 8, !tbaa !29
  invoke void @_ZN3sat3bcd14pure_decomposeEv(ptr noundef nonnull align 8 dereferenceable(80) %0)
          to label %5 unwind label %29

5:                                                ; preds = %2
  invoke void @_ZN3sat3bcd14post_decomposeEv(ptr noundef nonnull align 8 dereferenceable(80) %0)
          to label %6 unwind label %29

6:                                                ; preds = %5
  invoke void @_ZN3sat3bcd9sat_sweepEv(ptr noundef nonnull align 8 dereferenceable(80) %0)
          to label %7 unwind label %29

7:                                                ; preds = %6
  invoke void @_ZN3sat3bcd17extract_partitionER10union_findI22union_find_default_ctxE(ptr noundef nonnull align 8 dereferenceable(80) %0, ptr noundef nonnull align 8 dereferenceable(56) %1)
          to label %8 unwind label %29

8:                                                ; preds = %7
  call void @_ZN3sat3bcd6reportD2Ev(ptr noundef nonnull align 8 dereferenceable(8) %4) #22
  call void @llvm.lifetime.end.p0(i64 8, ptr nonnull %4) #22
  %9 = load ptr, ptr %0, align 8, !tbaa !8
  %10 = getelementptr inbounds nuw i8, ptr %0, i64 48
  invoke void @_ZN3sat6solver11del_clausesER10ptr_vectorINS_6clauseEE(ptr noundef nonnull align 8 dereferenceable(4264) %9, ptr noundef nonnull align 8 dereferenceable(8) %10)
          to label %.noexc.i unwind label %26

.noexc.i:                                         ; preds = %8
  %11 = load ptr, ptr %10, align 8, !tbaa !23
  %.not.i.i.i = icmp eq ptr %11, null
  br i1 %.not.i.i.i, label %_ZN6vectorIPN3sat6clauseELb0EjE5resetEv.exit.i.i, label %12

12:                                               ; preds = %.noexc.i
  %13 = getelementptr inbounds i8, ptr %11, i64 -4
  store i32 0, ptr %13, align 4, !tbaa !24
  br label %_ZN6vectorIPN3sat6clauseELb0EjE5resetEv.exit.i.i

_ZN6vectorIPN3sat6clauseELb0EjE5resetEv.exit.i.i: ; preds = %12, %.noexc.i
  %14 = getelementptr inbounds nuw i8, ptr %0, i64 8
  %15 = load ptr, ptr %14, align 8, !tbaa !23
  %.not.i1.i.i = icmp eq ptr %15, null
  br i1 %.not.i1.i.i, label %_ZN6vectorIPN3sat6clauseELb0EjE5resetEv.exit2.i.i, label %16

16:                                               ; preds = %_ZN6vectorIPN3sat6clauseELb0EjE5resetEv.exit.i.i
  %17 = getelementptr inbounds i8, ptr %15, i64 -4
  store i32 0, ptr %17, align 4, !tbaa !24
  br label %_ZN6vectorIPN3sat6clauseELb0EjE5resetEv.exit2.i.i

_ZN6vectorIPN3sat6clauseELb0EjE5resetEv.exit2.i.i: ; preds = %16, %_ZN6vectorIPN3sat6clauseELb0EjE5resetEv.exit.i.i
  %18 = getelementptr inbounds nuw i8, ptr %0, i64 16
  %19 = load ptr, ptr %18, align 8, !tbaa !26
  %.not.i3.i.i = icmp eq ptr %19, null
  br i1 %.not.i3.i.i, label %_ZN6vectorIN3sat3bcd7bclauseELb0EjE5resetEv.exit.i.i, label %20

20:                                               ; preds = %_ZN6vectorIPN3sat6clauseELb0EjE5resetEv.exit2.i.i
  %21 = getelementptr inbounds i8, ptr %19, i64 -4
  store i32 0, ptr %21, align 4, !tbaa !24
  br label %_ZN6vectorIN3sat3bcd7bclauseELb0EjE5resetEv.exit.i.i

_ZN6vectorIN3sat3bcd7bclauseELb0EjE5resetEv.exit.i.i: ; preds = %20, %_ZN6vectorIPN3sat6clauseELb0EjE5resetEv.exit2.i.i
  %22 = getelementptr inbounds nuw i8, ptr %0, i64 24
  %23 = load ptr, ptr %22, align 8, !tbaa !26
  %.not.i4.i.i = icmp eq ptr %23, null
  br i1 %.not.i4.i.i, label %_ZN3sat3bcd14scoped_cleanupD2Ev.exit, label %24

24:                                               ; preds = %_ZN6vectorIN3sat3bcd7bclauseELb0EjE5resetEv.exit.i.i
  %25 = getelementptr inbounds i8, ptr %23, i64 -4
  store i32 0, ptr %25, align 4, !tbaa !24
  br label %_ZN3sat3bcd14scoped_cleanupD2Ev.exit

26:                                               ; preds = %8
  %27 = landingpad { ptr, i32 }
          catch ptr null
  %28 = extractvalue { ptr, i32 } %27, 0
  call void @__clang_call_terminate(ptr %28) #21
  unreachable

_ZN3sat3bcd14scoped_cleanupD2Ev.exit:             ; preds = %_ZN6vectorIN3sat3bcd7bclauseELb0EjE5resetEv.exit.i.i, %24
  call void @llvm.lifetime.end.p0(i64 8, ptr nonnull %3) #22
  ret void

29:                                               ; preds = %7, %6, %5, %2
  %30 = landingpad { ptr, i32 }
          cleanup
  call void @_ZN3sat3bcd6reportD2Ev(ptr noundef nonnull align 8 dereferenceable(8) %4) #22
  call void @llvm.lifetime.end.p0(i64 8, ptr nonnull %4) #22
  call void @_ZN3sat3bcd14scoped_cleanupD2Ev(ptr noundef nonnull align 8 dereferenceable(8) %3) #22
  call void @llvm.lifetime.end.p0(i64 8, ptr nonnull %3) #22
  resume { ptr, i32 } %30
}